target datalayout = "e-m:e-p270:32:32-p271:32:32-p272:64:64-i64:64-i128:128-f80:128-n8:16:32:64-S128"
target triple = "x86_64-pc-linux-gnu"

%"struct.llvm::CodeViewDebug::LocalVarDef" = type { i32, i16, i16 }

; Function Attrs: mustprogress nounwind uwtable
define hidden i64 @_ZN4llvm13CodeViewDebug17createDefRangeMemEti(i16 noundef zeroext %0, i32 noundef %1) #0 align 2 {
  %3 = alloca %"struct.llvm::CodeViewDebug::LocalVarDef", align 4
  %4 = alloca i16, align 2
  %5 = alloca i32, align 4
  store i16 %0, ptr %4, align 2
  store i32 %1, ptr %5, align 4
  %6 = load i32, ptr %3, align 4
  %7 = and i32 %6, -2
  %8 = or i32 %7, 1
  store i32 %8, ptr %3, align 4
  %9 = load i32, ptr %5, align 4
  %10 = load i32, ptr %3, align 4
  %11 = and i32 %9, 2147483647
  %12 = shl i32 %11, 1
  %13 = and i32 %10, 1
  %14 = or i32 %13, %12
  store i32 %14, ptr %3, align 4
  %15 = getelementptr inbounds nuw %"struct.llvm::CodeViewDebug::LocalVarDef", ptr %3, i32 0, i32 1
  %16 = load i16, ptr %15, align 4
  %17 = and i16 %16, -2
  %18 = or i16 %17, 0
  store i16 %18, ptr %15, align 4
  %19 = getelementptr inbounds nuw %"struct.llvm::CodeViewDebug::LocalVarDef", ptr %3, i32 0, i32 1
  %20 = load i16, ptr %19, align 4
  %21 = and i16 %20, 1
  %22 = or i16 %21, 0
  store i16 %22, ptr %19, align 4
  %23 = load i16, ptr %4, align 2
  %24 = getelementptr inbounds nuw %"struct.llvm::CodeViewDebug::LocalVarDef", ptr %3, i32 0, i32 2
  store i16 %23, ptr %24, align 2
  %25 = load i64, ptr %3, align 4
  ret i64 %25
}