; Function Attrs: mustprogress nofree norecurse nosync nounwind willreturn memory(none) uwtable
define hidden range(i64 1, -281470681743360) i64 @_ZN4llvm13CodeViewDebug17createDefRangeMemEti(i16 noundef zeroext %0, i32 noundef %1) local_unnamed_addr #5 align 2 {
  %3 = shl i32 %1, 1
  %4 = or disjoint i32 %3, 1
  %.sroa.9.0.insert.ext = zext i16 %0 to i64
  %.sroa.9.0.insert.shift = shl nuw i64 %.sroa.9.0.insert.ext, 48
  %.sroa.0.0.insert.ext = zext i32 %4 to i64
  %.sroa.0.0.insert.insert = or disjoint i64 %.sroa.9.0.insert.shift, %.sroa.0.0.insert.ext
  ret i64 %.sroa.0.0.insert.insert
}